(lp0
I1370
aI212
aI1211
aI1727
aI387
aI1206
aI288
aI1607
aI524
aI843
aI1418
aI992
aI1475
aI1017
aI1265
aI1165
aI828
aI401
aI1140
aI507
aI1671
aI478
aI198
aI579
aI1888
aI466
aI634
aI1426
aI1704
aI1916
aI143
aI1256
aI1786
aI581
aI86
aI116
aI1580
aI1982
aI1067
aI907
aI203
aI1305
aI245
aI238
aI1758
aI1154
aI560
aI1726
aI837
aI977
aI399
aI1996
aI1113
aI161
aI1300
aI345
aI1548
aI614
aI898
aI1433
aI1471
aI225
aI195
aI168
aI666
aI283
aI1209
aI1070
aI1970
aI305
aI666
aI535
aI356
aI108
aI142
aI362
aI873
aI1974
aI166
aI208
aI863
aI819
aI1966
aI935
aI544
aI1136
aI1272
aI724
aI1059
aI1770
aI344
aI1552
aI1446
aI1101
aI1954
aI93
aI202
aI1347
aI1323
aI1670
aI1535
aI1939
aI263
aI614
aI198
aI68
aI1500
aI1747
aI1393
aI77
aI37
aI1977
aI1451
aI1531
aI30
aI54
aI1874
aI1630
aI1674
aI587
aI1735
aI1927
aI13
aI1678
aI1998
aI614
aI977
aI1294
aI24
aI934
aI1942
aI1465
aI738
aI689
aI371
aI676
aI566
aI72
aI137
aI360
aI70
aI992
aI1333
aI1000
aI1489
aI1065
aI572
aI1084
aI1985
aI1369
aI1938
aI1127
aI472
aI997
aI805
aI1794
aI597
aI50
aI841
aI1256
aI358
aI1027
aI507
aI596
aI1723
aI191
aI1759
aI2003
aI565
aI1963
aI1153
aI1657
aI1222
aI1079
aI1159
aI1739
aI1555
aI1533
aI1525
aI472
aI1403
aI1044
aI1448
aI1171
aI816
aI679
aI360
aI49
aI44
aI1101
aI1220
aI450
aI279
aI1970
aI1886
aI388
aI1848
aI624
aI1477
aI280
aI19
aI18
aI1406
aI1608
aI683
aI140
aI359
aI1669
aI1965
aI436
aI1168
aI1307
aI200
aI1671
aI1003
aI28
aI114
aI1257
aI1545
aI463
aI635
aI1755
aI1457
aI1291
aI451
aI1670
aI291
aI680
aI115
aI522
aI1128
aI1366
aI21
aI617
aI1345
aI747
aI1044
aI769
aI80
aI278
aI1354
aI1058
aI1813
aI230
aI1436
aI1563
aI1468
aI643
aI554
aI173
aI347
aI1210
aI177
aI726
aI702
aI1052
aI462
aI1283
aI1490
aI1466
aI1894
aI87
aI574
aI1574
aI465
aI1710
aI860
aI418
aI611
aI688
aI1452
aI1634
aI1040
aI1558
aI1504
aI1885
aI315
aI1354
aI480
aI1788
aI1726
aI1528
aI1284
aI1647
aI617
aI129
aI282
aI478
aI965
aI1565
aI679
aI1896
aI1395
aI1543
aI1054
aI934
aI938
aI752
aI625
aI631
aI1937
aI869
aI1150
aI1823
aI1660
aI1916
aI86
aI1572
aI842
aI1707
aI253
aI1393
aI1660
aI1153
aI109
aI787
aI62
aI1129
aI644
aI1087
aI891
aI1790
aI36
aI853
aI385
aI1304
aI1269
aI685
aI894
aI338
aI1095
aI1574
aI1823
aI552
aI540
aI1895
aI392
aI756
aI1430
aI1302
aI1546
aI1405
aI605
aI1013
aI57
aI1596
aI340
aI404
aI1242
aI1534
aI1892
aI120
aI1485
aI314
aI1491
aI862
aI1801
aI424
aI1069
aI268
aI477
aI73
aI734
aI978
aI1834
aI1932
aI361
aI989
aI1614
aI649
aI670
aI568
aI1721
aI822
aI1699
aI1931
aI1921
aI450
aI835
aI771
aI735
aI146
aI1499
aI924
aI501
aI1129
aI1116
aI1704
aI1296
aI293
aI1625
aI943
aI1715
aI898
aI1700
aI1000
aI705
aI942
aI1912
aI431
aI869
aI582
aI206
aI1473
aI1686
aI763
aI263
aI489
aI279
aI1981
aI169
aI790
aI1462
aI949
aI1
aI1739
aI504
aI516
aI1958
aI1585
aI538
aI1035
aI1949
aI89
aI44
aI661
aI686
aI760
aI555
aI844
aI1568
aI724
aI1439
aI39
aI642
aI307
aI1507
aI246
aI1327
aI611
aI1533
aI1297
aI1980
aI941
aI946
aI1560
aI1043
aI800
aI1152
aI360
aI748
aI509
aI312
aI1985
aI1660
aI1293
aI511
aI1513
aI1462
aI1580
aI391
aI1871
aI662
aI1364
aI1623
aI890
aI1548
aI1545
aI1836
aI1339
aI1544
aI1030
aI993
aI1549
aI874
aI153
aI660
aI1244
aI1799
aI1633
aI1395
aI1059
aI903
aI256
aI1707
aI1849
aI1524
aI1925
aI1181
aI434
aI1521
aI1708
aI1068
aI1505
aI671
aI1605
aI117
aI209
aI847
aI771
aI1819
aI1959
aI1798
aI999
aI1556
aI963
aI1119
aI1391
aI285
aI1997
aI512
aI1277
aI1912
aI33
aI1161
aI135
aI544
aI1769
aI1405
aI84
aI1462
aI816
aI1350
aI1328
aI1840
aI263
aI484
aI1006
aI811
aI992
aI802
aI1141
aI1004
aI1643
aI720
aI329
aI627
aI1256
aI1207
aI1337
aI474
aI514
aI1102
aI1862
aI1296
aI1678
aI1233
aI808
aI874
aI6
aI1294
aI1342
aI1864
aI473
aI1927
aI1870
aI1049
aI1284
aI640
aI465
aI1959
aI1613
aI651
aI1263
aI1060
aI325
aI1026
aI1860
aI701
aI76
aI412
aI1214
aI1470
aI1598
aI244
aI1507
aI616
aI1783
aI1281
aI1
aI1636
aI1248
aI208
aI1209
aI151
aI1111
aI1246
aI880
aI1386
aI1089
aI1611
aI1235
aI918
aI909
aI105
aI249
aI1214
aI1735
aI453
aI1485
a.