(lp0
I865
aI902
aI559
aI1258
aI1938
aI76
aI1256
aI1357
aI444
aI764
aI1260
aI430
aI1099
aI1380
aI543
aI1177
aI161
aI1347
aI1640
aI1661
aI1073
aI1573
aI85
aI254
aI702
aI1324
aI994
aI1394
aI1723
aI1654
aI281
aI1978
aI1589
aI1088
aI1331
aI978
aI1504
aI372
aI1117
aI296
aI970
aI375
aI399
aI568
aI1085
aI106
aI1274
aI970
aI562
aI1428
aI1563
aI821
aI1523
aI879
aI230
aI240
aI538
aI355
aI1345
aI146
aI1724
aI1880
aI835
aI1291
aI276
aI27
aI779
aI624
aI1310
aI1105
aI132
aI401
aI1622
aI93
aI1742
aI1296
aI1840
aI1733
aI1782
aI499
aI1787
aI193
aI890
aI1755
aI1253
aI544
aI1703
aI1666
aI1767
aI498
aI1452
aI318
aI1193
aI1512
aI604
aI754
aI1630
aI440
aI815
aI1471
aI1663
aI1685
aI1835
aI1785
aI929
aI318
aI850
aI1251
aI1178
aI669
aI123
aI195
aI1042
aI1359
aI1250
aI1174
aI1384
aI813
aI983
aI1785
aI1292
aI1015
aI1967
aI110
aI394
aI1430
aI1903
aI1066
aI682
aI603
aI1979
aI762
aI1117
aI299
aI1913
aI683
aI1577
aI1203
aI1533
aI1228
aI184
aI445
aI1234
aI568
aI1309
aI1749
aI341
aI1099
aI320
aI38
aI1854
aI1703
aI1362
aI776
aI1520
aI1595
aI1538
aI92
aI1719
aI468
aI558
aI1462
aI317
aI755
aI530
aI1402
aI1425
aI780
aI117
aI1395
aI1708
aI232
aI75
aI1768
aI1015
aI1839
aI709
aI1603
aI1251
aI174
aI1244
aI1377
aI389
aI1558
aI692
aI86
aI403
aI1125
aI1713
aI1055
aI861
aI612
aI531
aI424
aI326
aI1116
aI1116
aI1844
aI935
aI436
aI613
aI419
aI674
aI729
aI81
aI1747
aI1008
aI1366
aI1745
aI1294
aI1615
aI14
aI1011
aI1120
aI1134
aI1345
aI1724
aI1612
aI1599
aI429
aI1751
aI817
aI1529
aI1089
aI1956
aI1349
aI1554
aI376
aI1895
aI454
aI985
aI1989
aI1862
aI678
aI1334
aI556
aI756
aI144
aI975
aI924
aI538
aI682
aI351
aI763
aI757
aI1691
aI761
aI1578
aI1015
aI1494
aI655
aI825
aI993
aI1304
aI1097
aI981
aI572
aI1730
aI1505
aI1278
aI1803
aI1590
aI626
aI1581
aI1178
aI785
aI168
aI1893
aI297
aI1425
aI1756
aI475
aI1133
aI1080
aI150
aI1099
aI1660
aI616
aI1488
aI488
aI1858
aI680
aI1373
aI1359
aI1044
aI713
aI274
aI808
aI144
aI700
aI1230
aI1926
aI1964
aI959
aI104
aI1837
aI1697
aI850
aI250
aI1148
aI401
aI1222
aI1510
aI1190
aI1111
aI833
aI153
aI1421
aI780
aI1051
aI245
aI1392
aI251
aI498
aI603
aI904
aI780
aI1935
aI1035
aI142
aI219
aI260
aI1784
aI1054
aI365
aI1778
aI1891
aI1276
aI1326
aI584
aI1091
aI177
aI818
aI753
aI1614
aI74
aI1174
aI1728
aI1270
aI675
aI1745
aI1133
aI839
aI1879
aI55
aI611
aI1752
aI431
aI1210
aI868
aI1547
aI693
aI1884
aI239
aI1513
aI788
aI1205
aI8
aI699
aI1402
aI1713
aI1992
aI726
aI1961
aI242
aI952
aI1582
aI393
aI1645
aI137
aI697
aI1403
aI22
aI1753
aI494
aI1906
aI1633
aI146
aI664
aI456
aI1698
aI463
aI1797
aI716
aI1883
aI208
aI1865
aI1672
aI1153
aI1445
aI1917
aI1490
aI1632
aI417
aI1123
aI1858
aI1884
aI1170
aI260
aI402
aI344
aI1098
aI507
aI1156
aI1076
aI323
aI1309
aI952
aI526
aI491
aI1929
aI110
aI659
aI339
aI610
aI1054
aI651
aI1828
aI950
aI879
aI1734
aI1521
aI545
aI618
aI764
aI402
aI807
aI1028
aI80
aI632
aI1340
aI897
aI782
aI1776
aI1748
aI857
aI6
aI1136
aI28
aI851
aI1388
aI1051
aI853
aI264
aI1513
aI1881
aI1783
aI913
aI364
aI43
aI1202
aI1045
aI1960
aI1409
aI353
aI1744
aI1694
aI1057
aI360
aI1728
aI45
aI1960
aI244
aI988
aI1173
aI1018
aI314
aI38
aI264
aI1880
aI1372
aI476
aI541
aI1090
aI12
aI1164
aI1238
aI1074
aI213
aI1635
aI706
aI637
aI104
aI719
aI575
aI772
aI1144
aI641
aI1078
aI740
aI1127
aI1280
aI1617
aI867
aI352
aI1922
aI1402
aI788
aI499
aI509
aI476
aI1835
aI1630
aI243
aI517
aI257
aI791
aI1050
aI144
aI1564
aI28
aI387
aI1178
aI883
aI479
aI120
aI574
aI716
aI687
aI1949
aI657
aI700
aI51
aI1200
aI1254
aI513
aI1207
aI533
aI1435
aI885
aI77
aI1799
aI1051
aI420
aI1542
aI1527
aI1870
aI1738
aI253
aI617
aI1429
aI1957
aI1460
aI938
aI932
aI1777
aI2
aI401
aI1734
aI935
aI1721
aI1184
aI687
aI532
aI1710
aI1271
aI1141
aI754
aI1122
aI1464
aI1366
aI1909
aI222
aI1059
aI772
aI1189
aI643
aI252
aI1474
aI1423
aI65
aI22
aI1632
aI1459
aI946
aI1937
aI391
aI1103
aI1692
aI1873
aI460
aI1215
aI1609
aI735
aI1862
aI1238
aI208
aI93
aI1441
aI720
aI1945
aI218
aI133
aI19
aI568
aI1208
aI101
aI122
aI76
aI483
a.