(lp0
I1656
aI724
aI1845
aI733
aI1249
aI1335
aI1408
aI983
aI730
aI72
aI793
aI544
aI1027
aI992
aI1544
aI1010
aI931
aI1353
aI1307
aI1186
aI1484
aI765
aI813
aI1774
aI1789
aI1947
aI956
aI1371
aI1132
aI1307
aI259
aI1360
aI892
aI815
aI832
aI1650
aI1140
aI1373
aI911
aI1331
aI608
aI459
aI1043
aI350
aI1100
aI1348
aI132
aI1424
aI220
aI1114
aI1737
aI61
aI963
aI1442
aI452
aI739
aI55
aI1610
aI875
aI1731
aI1573
aI1167
aI95
aI568
aI841
aI1746
aI246
aI1196
aI93
aI1624
aI1048
aI419
aI983
aI1388
aI1565
aI454
aI1273
aI870
aI527
aI531
aI343
aI1461
aI909
aI1556
aI732
aI1554
aI1371
aI1632
aI1405
aI1328
aI517
aI357
aI1197
aI980
aI574
aI1462
aI272
aI978
aI947
aI440
aI1516
aI1911
aI11
aI1349
aI877
aI1179
aI1781
aI1132
aI1471
aI535
aI1802
aI1061
aI739
aI1587
aI361
aI263
aI1838
aI1
aI379
aI1343
aI511
aI1267
aI1310
aI419
aI368
aI590
aI652
aI303
aI1733
aI206
aI372
aI1194
aI19
aI444
aI159
aI883
aI1340
aI1435
aI245
aI1165
aI1545
aI894
aI873
aI686
aI1328
aI1168
aI970
aI1945
aI343
aI1401
aI1897
aI144
aI785
aI1859
aI1194
aI1852
aI1125
aI1355
aI374
aI788
aI620
aI1443
aI1587
aI1256
aI1676
aI1965
aI1725
aI47
aI689
aI792
aI545
aI1096
aI759
aI1176
aI429
aI1387
aI1315
aI486
aI1916
aI93
aI954
aI1467
aI811
aI753
aI973
aI1850
aI495
aI1249
aI1572
aI1290
aI1200
aI1236
aI973
aI1269
aI520
aI245
aI648
aI161
aI31
aI308
aI1077
aI79
aI1997
aI800
aI1034
aI70
aI730
aI1965
aI1615
aI723
aI1858
aI1693
aI783
aI390
aI1969
aI1056
aI1394
aI1143
aI164
aI1832
aI913
aI495
aI1940
aI97
aI1107
aI1040
aI1095
aI1820
aI13
aI1159
aI881
aI1034
aI558
aI134
aI312
aI328
aI123
aI1590
aI1267
aI28
aI655
aI1691
aI433
aI1638
aI196
aI524
aI1831
aI1754
aI360
aI1792
aI1590
aI1473
aI1223
aI1729
aI1619
aI1521
aI1705
aI821
aI505
aI1943
aI1657
aI435
aI571
aI416
aI1597
aI1964
aI689
aI638
aI1307
aI749
aI217
aI1281
aI1883
aI776
aI386
aI278
aI650
aI1750
aI1403
aI1223
aI1981
aI1580
aI732
aI1522
aI1365
aI1543
aI1929
aI404
aI865
aI1063
aI1515
aI1695
aI1272
aI730
aI480
aI1203
aI1406
aI21
aI423
aI589
aI906
aI1267
aI108
aI919
aI1456
aI1869
aI134
aI260
aI272
aI1227
aI1740
aI302
aI14
aI396
aI626
aI170
aI173
aI692
aI967
aI489
aI233
aI357
aI759
aI541
aI262
aI1634
aI229
aI1390
aI1710
aI391
aI356
aI135
aI1206
aI1778
aI636
aI996
aI51
aI1207
aI30
aI1779
aI475
aI1555
aI1609
aI429
aI1850
aI1845
aI1132
aI640
aI990
aI156
aI1295
aI660
aI442
aI1264
aI1500
aI286
aI1046
aI680
aI116
aI1024
aI1085
aI893
aI1299
aI1902
aI679
aI204
aI719
aI1648
aI127
aI100
aI1751
aI571
aI1595
aI711
aI1858
aI973
aI888
aI408
aI362
aI1537
aI163
aI129
aI70
aI1014
aI87
aI1190
aI1198
aI1841
aI1131
aI118
aI79
aI1987
aI447
aI573
aI1843
aI206
aI1446
aI146
aI1109
aI1454
aI79
aI103
aI1866
aI528
aI688
aI262
aI1283
aI1080
aI998
aI971
aI1625
aI1779
aI1608
aI214
aI1247
aI1301
aI577
aI130
aI797
aI1997
aI1295
aI622
aI1049
aI1773
aI1292
aI1592
aI503
aI188
aI1579
aI44
aI385
aI739
aI1809
aI1549
aI1546
aI1604
aI160
aI382
aI939
aI945
aI53
aI1631
aI388
aI1672
aI1872
aI1883
aI892
aI1945
aI846
aI696
aI6
aI502
aI1719
aI663
aI1428
aI1451
aI265
aI48
aI273
aI1392
aI1734
aI1062
aI1785
aI813
aI1903
aI1626
aI835
aI1037
aI1766
aI837
aI70
aI1491
aI94
aI1253
aI361
aI1137
aI744
aI905
aI1700
aI1882
aI1339
aI1330
aI1662
aI126
aI1298
aI120
aI695
aI1030
aI860
aI1365
aI1907
aI1126
aI790
aI102
aI1258
aI787
aI234
aI1275
aI1055
aI1285
aI1598
aI997
aI653
aI1922
aI599
aI800
aI117
aI1585
aI1292
aI1343
aI489
aI976
aI849
aI1079
aI550
aI1996
aI1268
aI799
aI177
aI1364
aI1560
aI1785
aI691
aI1924
aI1810
aI951
aI1714
aI1851
aI1805
aI980
aI1480
aI1315
aI1312
aI1674
aI1867
aI1264
aI565
aI1567
aI569
aI40
aI359
aI1763
aI508
aI924
aI890
aI1045
aI1501
aI1141
aI1473
aI1065
aI1281
aI800
aI1714
aI1418
aI1955
aI1281
aI1196
aI852
aI1640
aI177
aI2003
aI1982
aI773
aI1530
aI303
aI840
aI912
aI981
aI1029
aI887
aI1361
aI1571
aI346
aI1723
aI543
aI1095
aI347
aI562
aI1374
aI533
aI911
aI9
aI569
aI1251
aI1656
aI1213
aI591
aI995
aI203
aI523
aI542
aI721
aI1783
aI513
aI374
aI1681
aI35
aI66
aI1011
aI1329
a.